; Function Attrs: nounwind uwtable
define dso_local ptr @strbuf_detach(ptr noundef captures(none) %0, ptr noundef writeonly %1) local_unnamed_addr #3 {
  %3 = load i64, ptr %0, align 8, !tbaa !15
  %.not.i = icmp eq i64 %3, 0
  %4 = getelementptr inbounds nuw i8, ptr %0, i64 8
  %5 = load i64, ptr %4, align 8, !tbaa !16
  %6 = icmp eq i64 %5, -1
  br i1 %6, label %7, label %8

7:                                                ; preds = %2
  tail call void (ptr, ...) @die(ptr noundef nonnull @.str) #24
  unreachable

8:                                                ; preds = %2
  br i1 %.not.i, label %9, label %11

9:                                                ; preds = %8
  %10 = getelementptr inbounds nuw i8, ptr %0, i64 16
  store ptr null, ptr %10, align 8, !tbaa !12
  br label %11

11:                                               ; preds = %9, %8
  %.not7 = icmp ult i64 %5, %3
  br i1 %.not7, label %strbuf_grow.exit, label %12

12:                                               ; preds = %11
  %13 = add nuw i64 %5, 1
  %14 = mul i64 %3, 3
  %15 = add i64 %14, 48
  %16 = lshr i64 %15, 1
  %..i = tail call i64 @llvm.umax.i64(i64 %16, i64 %13)
  store i64 %..i, ptr %0, align 8, !tbaa !15
  %17 = getelementptr inbounds nuw i8, ptr %0, i64 16
  %18 = load ptr, ptr %17, align 8, !tbaa !12
  %19 = tail call ptr @xrealloc(ptr noundef %18, i64 noundef %..i) #25
  store ptr %19, ptr %17, align 8, !tbaa !12
  br i1 %.not.i, label %20, label %strbuf_grow.exit

20:                                               ; preds = %12
  store i8 0, ptr %19, align 1, !tbaa !4
  br label %strbuf_grow.exit

strbuf_grow.exit:                                 ; preds = %11, %12, %20
  %21 = getelementptr inbounds nuw i8, ptr %0, i64 16
  %22 = load ptr, ptr %21, align 8, !tbaa !12
  %.not = icmp eq ptr %1, null
  br i1 %.not, label %25, label %23

23:                                               ; preds = %strbuf_grow.exit
  %24 = load i64, ptr %4, align 8, !tbaa !16
  store i64 %24, ptr %1, align 8, !tbaa !17
  br label %25

25:                                               ; preds = %23, %strbuf_grow.exit
  tail call void @llvm.memcpy.p0.p0.i64(ptr noundef nonnull align 8 dereferenceable(24) %0, ptr noundef nonnull align 8 dereferenceable(24) @__const.strbuf_addftime.munged_fmt, i64 24, i1 false)
  ret ptr %22
}